; Function Attrs: mustprogress nofree norecurse nosync nounwind willreturn memory(read, inaccessiblemem: none) uwtable
define hidden noundef ptr @_ZNK7datalog8rule_set8get_predEP9func_decl(ptr noundef nonnull readonly align 8 captures(none) dereferenceable(248) %0, ptr noundef readonly captures(address, ret: address, provenance) %1) local_unnamed_addr #9 align 2 {
  %3 = getelementptr inbounds nuw i8, ptr %0, i64 176
  %4 = getelementptr inbounds nuw i8, ptr %1, i64 12
  %5 = load i32, ptr %4, align 4, !tbaa !55
  %6 = getelementptr inbounds nuw i8, ptr %0, i64 184
  %7 = load i32, ptr %6, align 8, !tbaa !156
  %8 = add i32 %7, -1
  %9 = and i32 %8, %5
  %10 = load ptr, ptr %3, align 8, !tbaa !153
  %11 = zext i32 %9 to i64
  %12 = getelementptr inbounds nuw %"class.obj_map<func_decl, func_decl *>::obj_map_entry", ptr %10, i64 %11
  %13 = zext i32 %7 to i64
  %14 = getelementptr inbounds nuw %"class.obj_map<func_decl, func_decl *>::obj_map_entry", ptr %10, i64 %13
  %.not35.i.i.i = icmp eq i32 %9, %7
  br i1 %.not35.i.i.i, label %.preheader.i.i.i, label %.lr.ph.i.i.i

.preheader.i.i.i:                                 ; preds = %21, %2
  %.not2737.i.i.i = icmp eq i32 %9, 0
  br i1 %.not2737.i.i.i, label %_ZNK7obj_mapI9func_declPS0_E4findES1_RS1_.exit, label %.lr.ph39.i.i.i

.lr.ph.i.i.i:                                     ; preds = %2, %21
  %.036.i.i.i = phi ptr [ %22, %21 ], [ %12, %2 ]
  %15 = load ptr, ptr %.036.i.i.i, align 8, !tbaa !332
  %magicptr30.i.i.i = ptrtoint ptr %15 to i64
  switch i64 %magicptr30.i.i.i, label %16 [
    i64 0, label %_ZNK7obj_mapI9func_declPS0_E4findES1_RS1_.exit
    i64 1, label %21
  ]

16:                                               ; preds = %.lr.ph.i.i.i
  %17 = getelementptr inbounds nuw i8, ptr %15, i64 12
  %18 = load i32, ptr %17, align 4, !tbaa !55
  %19 = icmp eq i32 %18, %5
  %20 = icmp eq ptr %15, %1
  %or.cond.i.i.i = and i1 %20, %19
  br i1 %or.cond.i.i.i, label %_ZNK7obj_mapI9func_declPS0_E9find_coreES1_.exit.i, label %21

21:                                               ; preds = %16, %.lr.ph.i.i.i
  %22 = getelementptr inbounds nuw i8, ptr %.036.i.i.i, i64 16
  %.not.i.i.i = icmp eq ptr %22, %14
  br i1 %.not.i.i.i, label %.preheader.i.i.i, label %.lr.ph.i.i.i, !llvm.loop !337

.lr.ph39.i.i.i:                                   ; preds = %.preheader.i.i.i, %29
  %.138.i.i.i = phi ptr [ %30, %29 ], [ %10, %.preheader.i.i.i ]
  %23 = load ptr, ptr %.138.i.i.i, align 8, !tbaa !332
  %magicptr32.i.i.i = ptrtoint ptr %23 to i64
  switch i64 %magicptr32.i.i.i, label %24 [
    i64 0, label %_ZNK7obj_mapI9func_declPS0_E4findES1_RS1_.exit
    i64 1, label %29
  ]

24:                                               ; preds = %.lr.ph39.i.i.i
  %25 = getelementptr inbounds nuw i8, ptr %23, i64 12
  %26 = load i32, ptr %25, align 4, !tbaa !55
  %27 = icmp eq i32 %26, %5
  %28 = icmp eq ptr %23, %1
  %or.cond31.i.i.i = and i1 %28, %27
  br i1 %or.cond31.i.i.i, label %_ZNK7obj_mapI9func_declPS0_E9find_coreES1_.exit.i, label %29

29:                                               ; preds = %24, %.lr.ph39.i.i.i
  %30 = getelementptr inbounds nuw i8, ptr %.138.i.i.i, i64 16
  %.not27.i.i.i = icmp eq ptr %30, %12
  br i1 %.not27.i.i.i, label %_ZNK7obj_mapI9func_declPS0_E4findES1_RS1_.exit, label %.lr.ph39.i.i.i, !llvm.loop !338

_ZNK7obj_mapI9func_declPS0_E9find_coreES1_.exit.i: ; preds = %16, %24
  %.026.i.i.i = phi ptr [ %.138.i.i.i, %24 ], [ %.036.i.i.i, %16 ]
  %31 = getelementptr inbounds nuw i8, ptr %.026.i.i.i, i64 8
  %32 = load ptr, ptr %31, align 8, !tbaa !339
  br label %_ZNK7obj_mapI9func_declPS0_E4findES1_RS1_.exit

_ZNK7obj_mapI9func_declPS0_E4findES1_RS1_.exit:   ; preds = %.lr.ph.i.i.i, %.lr.ph39.i.i.i, %29, %.preheader.i.i.i, %_ZNK7obj_mapI9func_declPS0_E9find_coreES1_.exit.i
  %.0 = phi ptr [ %1, %.preheader.i.i.i ], [ %32, %_ZNK7obj_mapI9func_declPS0_E9find_coreES1_.exit.i ], [ %1, %29 ], [ %1, %.lr.ph39.i.i.i ], [ %1, %.lr.ph.i.i.i ]
  ret ptr %.0
}